target datalayout = "e-m:e-p270:32:32-p271:32:32-p272:64:64-i64:64-i128:128-f80:128-n8:16:32:64-S128"
target triple = "x86_64-pc-linux-gnu"

%"struct.sls::euf_plugin::value_eq" = type { ptr }
%"class.sls::plugin" = type <{ ptr, ptr, ptr, i32, [4 x i8] }>
%class.app = type { %class.expr, ptr, i32, %struct.app_flags, [0 x ptr] }
%class.expr = type { %class.ast }
%class.ast = type { i32, i32, i32, i32 }
%struct.app_flags = type <{ i16, i8, i8 }>
%class.obj_ref = type { ptr, ptr }

; Function Attrs: mustprogress nounwind uwtable
define linkonce_odr hidden noundef ptr @_ZNK7obj_refI4expr11ast_managerE3getEv(ptr noundef nonnull align 8 dereferenceable(16) %0) #6 comdat align 2 {
  %2 = alloca ptr, align 8
  store ptr %0, ptr %2, align 8, !tbaa !114
  %3 = load ptr, ptr %2, align 8
  %4 = getelementptr inbounds nuw %class.obj_ref, ptr %3, i32 0, i32 0
  %5 = load ptr, ptr %4, align 8, !tbaa !116
  ret ptr %5
}

; Function Attrs: inlinehint mustprogress uwtable
define linkonce_odr hidden noundef zeroext i1 @_ZneI4expr11ast_managerEbRK7obj_refIT_T0_ES7_(ptr noundef nonnull align 8 dereferenceable(16) %0, ptr noundef nonnull align 8 dereferenceable(16) %1) #9 comdat {
  %3 = alloca ptr, align 8
  %4 = alloca ptr, align 8
  store ptr %0, ptr %3, align 8, !tbaa !114
  store ptr %1, ptr %4, align 8, !tbaa !114
  %5 = load ptr, ptr %3, align 8, !tbaa !114
  %6 = call noundef ptr @_ZNK7obj_refI4expr11ast_managerE3getEv(ptr noundef nonnull align 8 dereferenceable(16) %5)
  %7 = load ptr, ptr %4, align 8, !tbaa !114
  %8 = call noundef ptr @_ZNK7obj_refI4expr11ast_managerE3getEv(ptr noundef nonnull align 8 dereferenceable(16) %7)
  %9 = icmp ne ptr %6, %8
  ret i1 %9
}

; Function Attrs: mustprogress nounwind uwtable
define linkonce_odr hidden noundef ptr @_ZNK3app7get_argEj(ptr noundef nonnull align 8 dereferenceable(32) %0, i32 noundef %1) #6 comdat align 2 {
  %3 = alloca ptr, align 8
  %4 = alloca i32, align 4
  store ptr %0, ptr %3, align 8, !tbaa !77
  store i32 %1, ptr %4, align 4, !tbaa !24
  %5 = load ptr, ptr %3, align 8
  %6 = getelementptr inbounds nuw %class.app, ptr %5, i32 0, i32 4
  %7 = load i32, ptr %4, align 4, !tbaa !24
  %8 = zext i32 %7 to i64
  %9 = getelementptr inbounds nuw [0 x ptr], ptr %6, i64 0, i64 %8
  %10 = load ptr, ptr %9, align 8, !tbaa !75
  ret ptr %10
}

; Function Attrs: mustprogress nounwind uwtable
define linkonce_odr hidden noundef i32 @_ZNK3app12get_num_argsEv(ptr noundef nonnull align 8 dereferenceable(32) %0) #6 comdat align 2 {
  %2 = alloca ptr, align 8
  store ptr %0, ptr %2, align 8, !tbaa !77
  %3 = load ptr, ptr %2, align 8
  %4 = getelementptr inbounds nuw %class.app, ptr %3, i32 0, i32 2
  %5 = load i32, ptr %4, align 8, !tbaa !113
  ret i32 %5
}

; Function Attrs: mustprogress uwtable
define hidden noundef zeroext i1 @_ZNK3sls10euf_plugin8value_eqclEP3appS3_(ptr noundef nonnull align 8 dereferenceable(8) %0, ptr noundef %1, ptr noundef %2) #4 align 2 personality ptr @__gxx_personality_v0 {
  %4 = alloca i1, align 1
  %5 = alloca ptr, align 8
  %6 = alloca ptr, align 8
  %7 = alloca ptr, align 8
  %8 = alloca i32, align 4
  %9 = alloca i32, align 4
  %10 = alloca %class.obj_ref, align 8
  %11 = alloca %class.obj_ref, align 8
  %12 = alloca ptr, align 8
  %13 = alloca i32, align 4
  store ptr %0, ptr %5, align 8, !tbaa !20
  store ptr %1, ptr %6, align 8, !tbaa !77
  store ptr %2, ptr %7, align 8, !tbaa !77
  %14 = load ptr, ptr %5, align 8
  call void @llvm.lifetime.start.p0(i64 4, ptr %8) #3
  %15 = load ptr, ptr %6, align 8, !tbaa !77
  %16 = call noundef i32 @_ZNK3app12get_num_argsEv(ptr noundef nonnull align 8 dereferenceable(32) %15)
  store i32 %16, ptr %8, align 4, !tbaa !24
  br label %17

17:                                               ; preds = %51, %3
  %18 = load i32, ptr %8, align 4, !tbaa !24
  %19 = add i32 %18, -1
  store i32 %19, ptr %8, align 4, !tbaa !24
  %20 = icmp ugt i32 %18, 0
  br i1 %20, label %22, label %21

21:                                               ; preds = %17
  store i32 2, ptr %9, align 4
  br label %52

22:                                               ; preds = %17
  call void @llvm.lifetime.start.p0(i64 16, ptr %10) #3
  %23 = getelementptr inbounds nuw %"struct.sls::euf_plugin::value_eq", ptr %14, i32 0, i32 0
  %24 = load ptr, ptr %23, align 8, !tbaa !119
  %25 = getelementptr inbounds nuw %"class.sls::plugin", ptr %24, i32 0, i32 1
  %26 = load ptr, ptr %25, align 8, !tbaa !69
  %27 = load ptr, ptr %6, align 8, !tbaa !77
  %28 = load i32, ptr %8, align 4, !tbaa !24
  %29 = call noundef ptr @_ZNK3app7get_argEj(ptr noundef nonnull align 8 dereferenceable(32) %27, i32 noundef %28)
  call void @_ZN3sls7context9get_valueEP4expr(ptr dead_on_unwind writable sret(%class.obj_ref) align 8 %10, ptr noundef nonnull align 8 dereferenceable(321) %26, ptr noundef %29)
  call void @llvm.lifetime.start.p0(i64 16, ptr %11) #3
  %30 = getelementptr inbounds nuw %"struct.sls::euf_plugin::value_eq", ptr %14, i32 0, i32 0
  %31 = load ptr, ptr %30, align 8, !tbaa !119
  %32 = getelementptr inbounds nuw %"class.sls::plugin", ptr %31, i32 0, i32 1
  %33 = load ptr, ptr %32, align 8, !tbaa !69
  %34 = load ptr, ptr %7, align 8, !tbaa !77
  %35 = load i32, ptr %8, align 4, !tbaa !24
  %36 = invoke noundef ptr @_ZNK3app7get_argEj(ptr noundef nonnull align 8 dereferenceable(32) %34, i32 noundef %35)
          to label %37 unwind label %42

37:                                               ; preds = %22
  invoke void @_ZN3sls7context9get_valueEP4expr(ptr dead_on_unwind writable sret(%class.obj_ref) align 8 %11, ptr noundef nonnull align 8 dereferenceable(321) %33, ptr noundef %36)
          to label %38 unwind label %42

38:                                               ; preds = %37
  %39 = invoke noundef zeroext i1 @_ZneI4expr11ast_managerEbRK7obj_refIT_T0_ES7_(ptr noundef nonnull align 8 dereferenceable(16) %10, ptr noundef nonnull align 8 dereferenceable(16) %11)
          to label %40 unwind label %46

40:                                               ; preds = %38
  call void @_ZN7obj_refI4expr11ast_managerED2Ev(ptr noundef nonnull align 8 dereferenceable(16) %11) #3
  call void @llvm.lifetime.end.p0(i64 16, ptr %11) #3
  call void @_ZN7obj_refI4expr11ast_managerED2Ev(ptr noundef nonnull align 8 dereferenceable(16) %10) #3
  call void @llvm.lifetime.end.p0(i64 16, ptr %10) #3
  br i1 %39, label %41, label %51

41:                                               ; preds = %40
  store i1 false, ptr %4, align 1
  store i32 1, ptr %9, align 4
  br label %52

42:                                               ; preds = %37, %22
  %43 = landingpad { ptr, i32 }
          cleanup
  %44 = extractvalue { ptr, i32 } %43, 0
  store ptr %44, ptr %12, align 8
  %45 = extractvalue { ptr, i32 } %43, 1
  store i32 %45, ptr %13, align 4
  br label %50

46:                                               ; preds = %38
  %47 = landingpad { ptr, i32 }
          cleanup
  %48 = extractvalue { ptr, i32 } %47, 0
  store ptr %48, ptr %12, align 8
  %49 = extractvalue { ptr, i32 } %47, 1
  store i32 %49, ptr %13, align 4
  call void @_ZN7obj_refI4expr11ast_managerED2Ev(ptr noundef nonnull align 8 dereferenceable(16) %11) #3
  br label %50

50:                                               ; preds = %46, %42
  call void @llvm.lifetime.end.p0(i64 16, ptr %11) #3
  call void @_ZN7obj_refI4expr11ast_managerED2Ev(ptr noundef nonnull align 8 dereferenceable(16) %10) #3
  call void @llvm.lifetime.end.p0(i64 16, ptr %10) #3
  call void @llvm.lifetime.end.p0(i64 4, ptr %8) #3
  br label %57

51:                                               ; preds = %40
  br label %17, !llvm.loop !121

52:                                               ; preds = %41, %21
  call void @llvm.lifetime.end.p0(i64 4, ptr %8) #3
  %53 = load i32, ptr %9, align 4
  switch i32 %53, label %62 [
    i32 2, label %54
    i32 1, label %55
  ]

54:                                               ; preds = %52
  store i1 true, ptr %4, align 1
  br label %55

55:                                               ; preds = %54, %52
  %56 = load i1, ptr %4, align 1
  ret i1 %56

57:                                               ; preds = %50
  %58 = load ptr, ptr %12, align 8
  %59 = load i32, ptr %13, align 4
  %60 = insertvalue { ptr, i32 } poison, ptr %58, 0
  %61 = insertvalue { ptr, i32 } %60, i32 %59, 1
  resume { ptr, i32 } %61

62:                                               ; preds = %52
  unreachable
}