; Function Attrs: mustprogress uwtable
define hidden noundef zeroext i1 @_ZNK3sls10euf_plugin8value_eqclEP3appS3_(ptr noundef nonnull readonly align 8 captures(none) dereferenceable(8) %0, ptr noundef readonly captures(none) %1, ptr noundef readonly captures(none) %2) local_unnamed_addr #3 align 2 personality ptr @__gxx_personality_v0 {
  %4 = alloca %class.obj_ref, align 8
  %5 = alloca %class.obj_ref, align 8
  %6 = getelementptr inbounds nuw i8, ptr %1, i64 24
  %7 = load i32, ptr %6, align 8, !tbaa !142
  %8 = getelementptr inbounds nuw i8, ptr %1, i64 32
  %9 = getelementptr inbounds nuw i8, ptr %2, i64 32
  %10 = getelementptr inbounds nuw i8, ptr %5, i64 8
  %11 = getelementptr inbounds nuw i8, ptr %4, i64 8
  %12 = zext i32 %7 to i64
  br label %13

13:                                               ; preds = %_ZN7obj_refI4expr11ast_managerED2Ev.exit16, %3
  %indvars.iv = phi i64 [ %14, %_ZN7obj_refI4expr11ast_managerED2Ev.exit16 ], [ %12, %3 ]
  %14 = add nsw i64 %indvars.iv, -1
  %.not = icmp eq i64 %indvars.iv, 0
  br i1 %.not, label %52, label %15

15:                                               ; preds = %13
  call void @llvm.lifetime.start.p0(i64 16, ptr nonnull %4) #23
  %16 = load ptr, ptr %0, align 8, !tbaa !292
  %17 = getelementptr inbounds nuw i8, ptr %16, i64 8
  %18 = load ptr, ptr %17, align 8, !tbaa !68
  %19 = getelementptr inbounds nuw [0 x ptr], ptr %8, i64 0, i64 %14
  %20 = load ptr, ptr %19, align 8, !tbaa !140
  call void @_ZN3sls7context9get_valueEP4expr(ptr dead_on_unwind nonnull writable sret(%class.obj_ref) align 8 %4, ptr noundef nonnull align 8 dereferenceable(321) %18, ptr noundef %20)
  call void @llvm.lifetime.start.p0(i64 16, ptr nonnull %5) #23
  %21 = load ptr, ptr %0, align 8, !tbaa !292
  %22 = getelementptr inbounds nuw i8, ptr %21, i64 8
  %23 = load ptr, ptr %22, align 8, !tbaa !68
  %24 = getelementptr inbounds nuw [0 x ptr], ptr %9, i64 0, i64 %14
  %25 = load ptr, ptr %24, align 8, !tbaa !140
  invoke void @_ZN3sls7context9get_valueEP4expr(ptr dead_on_unwind nonnull writable sret(%class.obj_ref) align 8 %5, ptr noundef nonnull align 8 dereferenceable(321) %23, ptr noundef %25)
          to label %26 unwind label %50

26:                                               ; preds = %15
  %27 = load ptr, ptr %4, align 8, !tbaa !289
  %28 = load ptr, ptr %5, align 8, !tbaa !289
  %.not17 = icmp eq ptr %27, %28
  %.not.i.i = icmp eq ptr %28, null
  br i1 %.not.i.i, label %_ZN7obj_refI4expr11ast_managerED2Ev.exit, label %29

29:                                               ; preds = %26
  %30 = load ptr, ptr %10, align 8, !tbaa !291
  %31 = getelementptr inbounds nuw i8, ptr %28, i64 8
  %32 = load i32, ptr %31, align 4, !tbaa !275
  %33 = add i32 %32, -1
  store i32 %33, ptr %31, align 4, !tbaa !275
  %34 = icmp eq i32 %33, 0
  br i1 %34, label %35, label %_ZN7obj_refI4expr11ast_managerED2Ev.exit

35:                                               ; preds = %29
  invoke void @_ZN11ast_manager11delete_nodeEP3ast(ptr noundef nonnull align 8 dereferenceable(976) %30, ptr noundef nonnull %28)
          to label %._ZN7obj_refI4expr11ast_managerED2Ev.exitthread-pre-split_crit_edge unwind label %36

._ZN7obj_refI4expr11ast_managerED2Ev.exitthread-pre-split_crit_edge: ; preds = %35
  %.pr.pre = load ptr, ptr %4, align 8, !tbaa !289
  br label %_ZN7obj_refI4expr11ast_managerED2Ev.exit

36:                                               ; preds = %35
  %37 = landingpad { ptr, i32 }
          catch ptr null
  %38 = extractvalue { ptr, i32 } %37, 0
  call void @__clang_call_terminate(ptr %38) #24
  unreachable

_ZN7obj_refI4expr11ast_managerED2Ev.exit:         ; preds = %29, %._ZN7obj_refI4expr11ast_managerED2Ev.exitthread-pre-split_crit_edge, %26
  %39 = phi ptr [ %27, %26 ], [ %.pr.pre, %._ZN7obj_refI4expr11ast_managerED2Ev.exitthread-pre-split_crit_edge ], [ %27, %29 ]
  call void @llvm.lifetime.end.p0(i64 16, ptr nonnull %5) #23
  %.not.i.i15 = icmp eq ptr %39, null
  br i1 %.not.i.i15, label %_ZN7obj_refI4expr11ast_managerED2Ev.exit16, label %40

40:                                               ; preds = %_ZN7obj_refI4expr11ast_managerED2Ev.exit
  %41 = load ptr, ptr %11, align 8, !tbaa !291
  %42 = getelementptr inbounds nuw i8, ptr %39, i64 8
  %43 = load i32, ptr %42, align 4, !tbaa !275
  %44 = add i32 %43, -1
  store i32 %44, ptr %42, align 4, !tbaa !275
  %45 = icmp eq i32 %44, 0
  br i1 %45, label %46, label %_ZN7obj_refI4expr11ast_managerED2Ev.exit16

46:                                               ; preds = %40
  invoke void @_ZN11ast_manager11delete_nodeEP3ast(ptr noundef nonnull align 8 dereferenceable(976) %41, ptr noundef nonnull %39)
          to label %_ZN7obj_refI4expr11ast_managerED2Ev.exit16 unwind label %47

47:                                               ; preds = %46
  %48 = landingpad { ptr, i32 }
          catch ptr null
  %49 = extractvalue { ptr, i32 } %48, 0
  call void @__clang_call_terminate(ptr %49) #24
  unreachable

_ZN7obj_refI4expr11ast_managerED2Ev.exit16:       ; preds = %_ZN7obj_refI4expr11ast_managerED2Ev.exit, %40, %46
  call void @llvm.lifetime.end.p0(i64 16, ptr nonnull %4) #23
  br i1 %.not17, label %13, label %52, !llvm.loop !293

50:                                               ; preds = %15
  %51 = landingpad { ptr, i32 }
          cleanup
  call void @llvm.lifetime.end.p0(i64 16, ptr nonnull %5) #23
  call void @_ZN7obj_refI4expr11ast_managerED2Ev(ptr noundef nonnull align 8 dereferenceable(16) %4) #23
  call void @llvm.lifetime.end.p0(i64 16, ptr nonnull %4) #23
  resume { ptr, i32 } %51

52:                                               ; preds = %_ZN7obj_refI4expr11ast_managerED2Ev.exit16, %13
  ret i1 %.not
}